(dp0
S'basmati rice'
p1
I58
sS'baguette'
p2
I95
sS'coco pops'
p3
I77
sS'crumpet, toasted'
p4
I69
sS'raisins'
p5
I64
sS'white rice, steamed'
p6
I98
sS'new potatoes'
p7
I62
sS'digestive biscuit'
p8
I59
sS'apricots, canned in syrup'
p9
I64
sS'rye bread'
p10
I65
sS'weetabix'
p11
I69
sS'honey'
p12
I58
sS'boiled potatoes'
p13
I56
sS'rice krispies'
p14
I82
sS'mars bar'
p15
I68
sS'branflakes'
p16
I74
sS'puffed wheat'
p17
I89
sS'ice cream'
p18
I61
sS'pitta bread'
p19
I57
sS'bagel'
p20
I72
sS'parsnips, boiled'
p21
I97
sS'cantaloupe melon'
p22
I67
sS'couscous'
p23
I65
sS'muesli, non toasted'
p24
I56
sS'white bread'
p25
I70
sS'jelly beans'
p26
I80
sS'shortbread biscuit'
p27
I64
sS'cheese and tomato pizza'
p28
I60
sS'coca cola'
p29
I63
sS'shredded wheat'
p30
I67
sS'ryvita'
p31
I69
sS'watermelon'
p32
I72
sS'wholemeal bread'
p33
I69
sS'mashed potato'
p34
I70
sS'swede'
p35
I72
sS'jacket potato'
p36
I85
sS'croissant'
p37
I67
sS'rice cakes'
p38
I82
sS'french fries'
p39
I75
sS'sultanas'
p40
I56
sS'pineapple, fresh'
p41
I66
sS'cornflakes'
p42
I84
sS'cheerios'
p43
I74
s.